(dp0
S'ROMFS_FILES'
p1
(lp2
sS'MAIN_STACK'
p3
S'0x400'
p4
sS'APJ_BOARD_TYPE'
p5
S'STM32F405xx'
p6
sS'BOARD_FLASH_SIZE'
p7
I1024
sS'APJ_BOARD_ID'
p8
S'101'
p9
sS'FLASH_RESERVE_START_KB'
p10
S'0'
p11
sS'CHIBIOS_BUILD_FLAGS'
p12
S'USE_FATFS=no MCU=cortex-m4 CHIBIOS_PLATFORM_MK=os/hal/ports/STM32/STM32F4xx/platform.mk CHIBIOS_STARTUP_MK=os/common/startup/ARMCMx/compilers/GCC/mk/startup_stm32f4xx.mk'
p13
sS'CPU_FLAGS'
p14
(lp15
S'-mcpu=cortex-m4'
p16
aS'-mfpu=fpv4-sp-d16'
p17
aS'-mfloat-abi=hard'
p18
asS'IOMCU_FW'
p19
I0
sS'PROCESS_STACK'
p20
S'0x2000'
p21
s.